; ModuleID = '5/292.c'
source_filename = "5/292.c"
target datalayout = "e-m:e-p270:32:32-p271:32:32-p272:64:64-i64:64-f80:128-n8:16:32:64-S128"
target triple = "x86_64-pc-linux-gnu"

@.str = private unnamed_addr constant [3 x i8] c"%f\00", align 1
@.str.1 = private unnamed_addr constant [3 x i8] c"%s\00", align 1
@.str.2 = private unnamed_addr constant [6 x i8] c"error\00", align 1
@.str.3 = private unnamed_addr constant [4 x i8] c"yes\00", align 1
@.str.4 = private unnamed_addr constant [3 x i8] c"no\00", align 1

; Function Attrs: noinline nounwind uwtable
define dso_local i32 @main() #0 {
  %1 = alloca i32, align 4
  %2 = alloca i32, align 4
  %3 = alloca i32, align 4
  %4 = alloca i32, align 4
  %5 = alloca i32, align 4
  %6 = alloca i32, align 4
  %7 = alloca i32, align 4
  %8 = alloca float, align 4
  %9 = alloca float, align 4
  %10 = alloca float, align 4
  %11 = alloca float, align 4
  %12 = alloca [10000 x i8], align 16
  %13 = alloca [10000 x i8], align 16
  store i32 0, i32* %1, align 4
  %14 = call i32 (i8*, ...) @__isoc99_scanf(i8* getelementptr inbounds ([3 x i8], [3 x i8]* @.str, i64 0, i64 0), float* %8)
  %15 = getelementptr inbounds [10000 x i8], [10000 x i8]* %12, i64 0, i64 0
  %16 = call i32 (i8*, ...) @__isoc99_scanf(i8* getelementptr inbounds ([3 x i8], [3 x i8]* @.str.1, i64 0, i64 0), i8* %15)
  %17 = getelementptr inbounds [10000 x i8], [10000 x i8]* %13, i64 0, i64 0
  %18 = call i32 (i8*, ...) @__isoc99_scanf(i8* getelementptr inbounds ([3 x i8], [3 x i8]* @.str.1, i64 0, i64 0), i8* %17)
  %19 = getelementptr inbounds [10000 x i8], [10000 x i8]* %12, i64 0, i64 0
  %20 = call i64 @strlen(i8* %19) #3
  %21 = trunc i64 %20 to i32
  store i32 %21, i32* %2, align 4
  %22 = getelementptr inbounds [10000 x i8], [10000 x i8]* %13, i64 0, i64 0
  %23 = call i64 @strlen(i8* %22) #3
  %24 = trunc i64 %23 to i32
  store i32 %24, i32* %3, align 4
  store i32 0, i32* %6, align 4
  store i32 0, i32* %7, align 4
  store i32 0, i32* %4, align 4
  br label %25

25:                                               ; preds = %63, %0
  %26 = load i32, i32* %4, align 4
  %27 = sext i32 %26 to i64
  %28 = getelementptr inbounds [10000 x i8], [10000 x i8]* %12, i64 0, i64 %27
  %29 = load i8, i8* %28, align 1
  %30 = icmp ne i8 %29, 0
  br i1 %30, label %31, label %66

31:                                               ; preds = %25
  %32 = load i32, i32* %4, align 4
  %33 = sext i32 %32 to i64
  %34 = getelementptr inbounds [10000 x i8], [10000 x i8]* %12, i64 0, i64 %33
  %35 = load i8, i8* %34, align 1
  %36 = sext i8 %35 to i32
  %37 = icmp ne i32 %36, 65
  br i1 %37, label %38, label %62

38:                                               ; preds = %31
  %39 = load i32, i32* %4, align 4
  %40 = sext i32 %39 to i64
  %41 = getelementptr inbounds [10000 x i8], [10000 x i8]* %12, i64 0, i64 %40
  %42 = load i8, i8* %41, align 1
  %43 = sext i8 %42 to i32
  %44 = icmp ne i32 %43, 84
  br i1 %44, label %45, label %62

45:                                               ; preds = %38
  %46 = load i32, i32* %4, align 4
  %47 = sext i32 %46 to i64
  %48 = getelementptr inbounds [10000 x i8], [10000 x i8]* %12, i64 0, i64 %47
  %49 = load i8, i8* %48, align 1
  %50 = sext i8 %49 to i32
  %51 = icmp ne i32 %50, 71
  br i1 %51, label %52, label %62

52:                                               ; preds = %45
  %53 = load i32, i32* %4, align 4
  %54 = sext i32 %53 to i64
  %55 = getelementptr inbounds [10000 x i8], [10000 x i8]* %12, i64 0, i64 %54
  %56 = load i8, i8* %55, align 1
  %57 = sext i8 %56 to i32
  %58 = icmp ne i32 %57, 67
  br i1 %58, label %59, label %62

59:                                               ; preds = %52
  %60 = load i32, i32* %6, align 4
  %61 = add nsw i32 %60, 1
  store i32 %61, i32* %6, align 4
  br label %62

62:                                               ; preds = %59, %52, %45, %38, %31
  br label %63

63:                                               ; preds = %62
  %64 = load i32, i32* %4, align 4
  %65 = add nsw i32 %64, 1
  store i32 %65, i32* %4, align 4
  br label %25

66:                                               ; preds = %25
  store i32 0, i32* %4, align 4
  br label %67

67:                                               ; preds = %105, %66
  %68 = load i32, i32* %4, align 4
  %69 = sext i32 %68 to i64
  %70 = getelementptr inbounds [10000 x i8], [10000 x i8]* %13, i64 0, i64 %69
  %71 = load i8, i8* %70, align 1
  %72 = icmp ne i8 %71, 0
  br i1 %72, label %73, label %108

73:                                               ; preds = %67
  %74 = load i32, i32* %4, align 4
  %75 = sext i32 %74 to i64
  %76 = getelementptr inbounds [10000 x i8], [10000 x i8]* %13, i64 0, i64 %75
  %77 = load i8, i8* %76, align 1
  %78 = sext i8 %77 to i32
  %79 = icmp ne i32 %78, 65
  br i1 %79, label %80, label %104

80:                                               ; preds = %73
  %81 = load i32, i32* %4, align 4
  %82 = sext i32 %81 to i64
  %83 = getelementptr inbounds [10000 x i8], [10000 x i8]* %13, i64 0, i64 %82
  %84 = load i8, i8* %83, align 1
  %85 = sext i8 %84 to i32
  %86 = icmp ne i32 %85, 84
  br i1 %86, label %87, label %104

87:                                               ; preds = %80
  %88 = load i32, i32* %4, align 4
  %89 = sext i32 %88 to i64
  %90 = getelementptr inbounds [10000 x i8], [10000 x i8]* %13, i64 0, i64 %89
  %91 = load i8, i8* %90, align 1
  %92 = sext i8 %91 to i32
  %93 = icmp ne i32 %92, 71
  br i1 %93, label %94, label %104

94:                                               ; preds = %87
  %95 = load i32, i32* %4, align 4
  %96 = sext i32 %95 to i64
  %97 = getelementptr inbounds [10000 x i8], [10000 x i8]* %13, i64 0, i64 %96
  %98 = load i8, i8* %97, align 1
  %99 = sext i8 %98 to i32
  %100 = icmp ne i32 %99, 67
  br i1 %100, label %101, label %104

101:                                              ; preds = %94
  %102 = load i32, i32* %6, align 4
  %103 = add nsw i32 %102, 1
  store i32 %103, i32* %6, align 4
  br label %104

104:                                              ; preds = %101, %94, %87, %80, %73
  br label %105

105:                                              ; preds = %104
  %106 = load i32, i32* %4, align 4
  %107 = add nsw i32 %106, 1
  store i32 %107, i32* %4, align 4
  br label %67

108:                                              ; preds = %67
  %109 = load i32, i32* %2, align 4
  %110 = load i32, i32* %3, align 4
  %111 = icmp ne i32 %109, %110
  br i1 %111, label %115, label %112

112:                                              ; preds = %108
  %113 = load i32, i32* %6, align 4
  %114 = icmp ne i32 %113, 0
  br i1 %114, label %115, label %117

115:                                              ; preds = %112, %108
  %116 = call i32 (i8*, ...) @printf(i8* getelementptr inbounds ([6 x i8], [6 x i8]* @.str.2, i64 0, i64 0))
  br label %159

117:                                              ; preds = %112
  store i32 0, i32* %5, align 4
  br label %118

118:                                              ; preds = %140, %117
  %119 = load i32, i32* %5, align 4
  %120 = sext i32 %119 to i64
  %121 = getelementptr inbounds [10000 x i8], [10000 x i8]* %12, i64 0, i64 %120
  %122 = load i8, i8* %121, align 1
  %123 = icmp ne i8 %122, 0
  br i1 %123, label %124, label %143

124:                                              ; preds = %118
  %125 = load i32, i32* %5, align 4
  %126 = sext i32 %125 to i64
  %127 = getelementptr inbounds [10000 x i8], [10000 x i8]* %12, i64 0, i64 %126
  %128 = load i8, i8* %127, align 1
  %129 = sext i8 %128 to i32
  %130 = load i32, i32* %5, align 4
  %131 = sext i32 %130 to i64
  %132 = getelementptr inbounds [10000 x i8], [10000 x i8]* %13, i64 0, i64 %131
  %133 = load i8, i8* %132, align 1
  %134 = sext i8 %133 to i32
  %135 = icmp eq i32 %129, %134
  br i1 %135, label %136, label %139

136:                                              ; preds = %124
  %137 = load i32, i32* %7, align 4
  %138 = add nsw i32 %137, 1
  store i32 %138, i32* %7, align 4
  br label %139

139:                                              ; preds = %136, %124
  br label %140

140:                                              ; preds = %139
  %141 = load i32, i32* %5, align 4
  %142 = add nsw i32 %141, 1
  store i32 %142, i32* %5, align 4
  br label %118

143:                                              ; preds = %118
  %144 = load i32, i32* %2, align 4
  %145 = sitofp i32 %144 to float
  store float %145, float* %9, align 4
  %146 = load i32, i32* %7, align 4
  %147 = sitofp i32 %146 to float
  store float %147, float* %10, align 4
  %148 = load float, float* %10, align 4
  %149 = load float, float* %9, align 4
  %150 = fdiv float %148, %149
  store float %150, float* %11, align 4
  %151 = load float, float* %11, align 4
  %152 = load float, float* %8, align 4
  %153 = fcmp ogt float %151, %152
  br i1 %153, label %154, label %156

154:                                              ; preds = %143
  %155 = call i32 (i8*, ...) @printf(i8* getelementptr inbounds ([4 x i8], [4 x i8]* @.str.3, i64 0, i64 0))
  br label %158

156:                                              ; preds = %143
  %157 = call i32 (i8*, ...) @printf(i8* getelementptr inbounds ([3 x i8], [3 x i8]* @.str.4, i64 0, i64 0))
  br label %158

158:                                              ; preds = %156, %154
  br label %159

159:                                              ; preds = %158, %115
  ret i32 0
}

declare dso_local i32 @__isoc99_scanf(i8*, ...) #1

; Function Attrs: nounwind readonly
declare dso_local i64 @strlen(i8*) #2

declare dso_local i32 @printf(i8*, ...) #1


!llvm.module.flags = !{!0}
!llvm.ident = !{!1}

!0 = !{i32 1, !"wchar_size", i32 4}
!1 = !{!"clang version 10.0.0-4ubuntu1 "}
